; Function Attrs: mustprogress uwtable
define noundef zeroext i16 @_ZN6icu_7717CharacterIterator12firstPostIncEv(ptr noundef nonnull align 8 dereferenceable(24) %0) unnamed_addr #7 align 2 {
  %2 = load ptr, ptr %0, align 8, !tbaa !3
  %3 = getelementptr inbounds nuw i8, ptr %2, i64 192
  %4 = load ptr, ptr %3, align 8
  %5 = tail call noundef i32 %4(ptr noundef nonnull align 8 dereferenceable(24) %0, i32 noundef 0, i32 noundef 0)
  %6 = load ptr, ptr %0, align 8, !tbaa !3
  %7 = getelementptr inbounds nuw i8, ptr %6, i64 40
  %8 = load ptr, ptr %7, align 8
  %9 = tail call noundef zeroext i16 %8(ptr noundef nonnull align 8 dereferenceable(8) %0)
  ret i16 %9
}